ARM GAS  /cygdrive/c/Users/embedded/AppData/Local/Temp/ccqGPoOm.s 			page 1


   1              		.file	"irq_timer1.c"
   8 0000 7F000000 		.text
   8      02004600 
   8      00000201 
   8      FB0E0D00 
   8      01010101 
   9              	.Ltext0:
  10              		.align	2
  11              		.global	send_SPI
  12              		.type	send_SPI, %function
  13              	send_SPI:
  14              	.LFB2:
  15              		.file 1 "irq_timer1.c"
   1:irq_timer1.c  **** /******************************************************************************
   2:irq_timer1.c  ****  *
   3:irq_timer1.c  ****  * Copyright:
   4:irq_timer1.c  ****  *    (C) 2000 - 2005 Embedded Artists AB
   5:irq_timer1.c  ****  *
   6:irq_timer1.c  ****  *****************************************************************************/
   7:irq_timer1.c  **** 
   8:irq_timer1.c  **** #include "../pre_emptive_os/api/general.h"
   9:irq_timer1.c  **** #include <lpc2xxx.h>
  10:irq_timer1.c  **** 
  11:irq_timer1.c  **** #define  SPI_CS   0x00008000  //<= new board, old board = 0x00800000
  12:irq_timer1.c  **** 
  13:irq_timer1.c  **** extern tU8 pattern[8];
  14:irq_timer1.c  **** volatile unsigned int Timer=0;
  15:irq_timer1.c  **** 
  16:irq_timer1.c  **** /*****************************************************************************
  17:irq_timer1.c  ****  *
  18:irq_timer1.c  ****  * Description:
  19:irq_timer1.c  ****  *
  20:irq_timer1.c  ****  ****************************************************************************/
  21:irq_timer1.c  **** void send_SPI(unsigned char indata)
  22:irq_timer1.c  **** {
  16              		.loc 1 22 0
  17              		@ Function supports interworking.
  18              		@ args = 0, pretend = 0, frame = 0
  19              		@ frame_needed = 0, uses_anonymous_args = 0
  20              		@ link register save eliminated.
  21              	.LVL0:
  23:irq_timer1.c  **** 	tU32 failsafe;
  24:irq_timer1.c  **** 	
  25:irq_timer1.c  ****   IOCLR0 = SPI_CS;  //Aktiverar SPI
  22              		.loc 1 25 0
  23 0000 7C309FE5 		ldr	r3, .L11
  24 0004 0229A0E3 		mov	r2, #32768
  25 0008 0C2083E5 		str	r2, [r3, #12]
  26              		.loc 1 22 0
  27 000c FF0000E2 		and	r0, r0, #255
  26:irq_timer1.c  ****   
ARM GAS  /cygdrive/c/Users/embedded/AppData/Local/Temp/ccqGPoOm.s 			page 2


  27:irq_timer1.c  ****   SPI_SPDR = indata;
  28              		.loc 1 27 0
  29 0010 023943E2 		sub	r3, r3, #32768
  30 0014 0010A0E3 		mov	r1, #0
  31              	.LVL1:
  32              		.loc 1 22 0
  33              		@ lr needed for prologue
  34              		.loc 1 27 0
  35 0018 080083E5 		str	r0, [r3, #8]
  36 001c 000000EA 		b	.L2
  37              	.L3:
  28:irq_timer1.c  ****   failsafe = 0;
  29:irq_timer1.c  ****   while(((SPI_SPSR & 0x80) == 0) && (failsafe < 5000))
  30:irq_timer1.c  ****     failsafe++;
  38              		.loc 1 30 0
  39 0020 011081E2 		add	r1, r1, #1
  40              	.L2:
  41              		.loc 1 29 0
  42 0024 5C309FE5 		ldr	r3, .L11+4
  43 0028 043093E5 		ldr	r3, [r3, #4]
  44 002c 800013E3 		tst	r3, #128
  45 0030 0300001A 		bne	.L4
  46 0034 50309FE5 		ldr	r3, .L11+8
  47 0038 030051E1 		cmp	r1, r3
  48 003c F7FFFF1A 		bne	.L3
  49 0040 0B0000EA 		b	.L10
  50              	.L4:
  31:irq_timer1.c  ****   IOSET0 = SPI_CS;  //Inaktiverar SPI
  32:irq_timer1.c  ****   
  33:irq_timer1.c  ****   if (failsafe >= 5000)
  51              		.loc 1 33 0
  52 0044 44309FE5 		ldr	r3, .L11+12
  53 0048 030051E1 		cmp	r1, r3
  54              		.loc 1 31 0
  55 004c 30309FE5 		ldr	r3, .L11
  56 0050 0229A0E3 		mov	r2, #32768
  57 0054 042083E5 		str	r2, [r3, #4]
  58              		.loc 1 33 0
  59 0058 1EFF2F91 		bxls	lr
  60              	.L8:
  34:irq_timer1.c  ****   {
  35:irq_timer1.c  ****     SPI_SPCCR = 0x08;    
  61              		.loc 1 35 0
  62 005c 24309FE5 		ldr	r3, .L11+4
  63 0060 0820A0E3 		mov	r2, #8
  64 0064 0C2083E5 		str	r2, [r3, #12]
  36:irq_timer1.c  ****     SPI_SPCR  = 0x60;
  65              		.loc 1 36 0
  66 0068 582082E2 		add	r2, r2, #88
  67 006c 002083E5 		str	r2, [r3, #0]
  68 0070 1EFF2FE1 		bx	lr
  69              	.L10:
  70              		.loc 1 31 0
  71 0074 08309FE5 		ldr	r3, .L11
  72 0078 0229A0E3 		mov	r2, #32768
  73 007c 042083E5 		str	r2, [r3, #4]
  74 0080 F5FFFFEA 		b	.L8
ARM GAS  /cygdrive/c/Users/embedded/AppData/Local/Temp/ccqGPoOm.s 			page 3


  75              	.L12:
  76              		.align	2
  77              	.L11:
  78 0084 008002E0 		.word	-536707072
  79 0088 000002E0 		.word	-536739840
  80 008c 88130000 		.word	5000
  81 0090 87130000 		.word	4999
  82              	.LFE2:
  83              		.size	send_SPI, .-send_SPI
  84              		.align	2
  85              		.global	zeroTimer
  86              		.type	zeroTimer, %function
  87              	zeroTimer:
  88              	.LFB3:
  37:irq_timer1.c  ****   }
  38:irq_timer1.c  **** }
  39:irq_timer1.c  **** 
  40:irq_timer1.c  **** void zeroTimer() {
  89              		.loc 1 40 0
  90              		@ Function supports interworking.
  91              		@ args = 0, pretend = 0, frame = 0
  92              		@ frame_needed = 0, uses_anonymous_args = 0
  93              		@ link register save eliminated.
  41:irq_timer1.c  **** 	Timer=0;
  94              		.loc 1 41 0
  95 0094 08309FE5 		ldr	r3, .L15
  96 0098 0020A0E3 		mov	r2, #0
  97              		.loc 1 40 0
  98              		@ lr needed for prologue
  99              		.loc 1 41 0
 100 009c 002083E5 		str	r2, [r3, #0]
  42:irq_timer1.c  **** }
 101              		.loc 1 42 0
 102 00a0 1EFF2FE1 		bx	lr
 103              	.L16:
 104              		.align	2
 105              	.L15:
 106 00a4 00000000 		.word	Timer
 107              	.LFE3:
 108              		.size	zeroTimer, .-zeroTimer
 109              		.align	2
 110              		.global	ledMatrix
 111              		.type	ledMatrix, %function
 112              	ledMatrix:
 113              	.LFB4:
  43:irq_timer1.c  **** 
  44:irq_timer1.c  **** void ledMatrix(void)
  45:irq_timer1.c  **** {
 114              		.loc 1 45 0
 115              		@ Function supports interworking.
 116              		@ args = 0, pretend = 0, frame = 0
 117              		@ frame_needed = 0, uses_anonymous_args = 0
 118 00a8 30402DE9 		stmfd	sp!, {r4, r5, lr}
 119              	.LCFI0:
  46:irq_timer1.c  **** 	Timer++;
 120              		.loc 1 46 0
 121 00ac 84109FE5 		ldr	r1, .L21
ARM GAS  /cygdrive/c/Users/embedded/AppData/Local/Temp/ccqGPoOm.s 			page 4


  47:irq_timer1.c  **** 	static tU32 columnCounter = 0x01;
  48:irq_timer1.c  ****  	static tU8 index = 0;
  49:irq_timer1.c  **** 
  50:irq_timer1.c  ****   if (columnCounter > 0x80)
 122              		.loc 1 50 0
 123 00b0 84509FE5 		ldr	r5, .L21+4
 124              		.loc 1 46 0
 125 00b4 003091E5 		ldr	r3, [r1, #0]
 126              		.loc 1 50 0
 127 00b8 002095E5 		ldr	r2, [r5, #0]
  51:irq_timer1.c  ****   {
  52:irq_timer1.c  ****     columnCounter = 0x01;
  53:irq_timer1.c  ****     index = 0;
  54:irq_timer1.c  ****   }
  55:irq_timer1.c  ****   send_SPI(~pattern[index++]);
 128              		.loc 1 55 0
 129 00bc 7CC09FE5 		ldr	ip, .L21+8
 130              		.loc 1 50 0
 131 00c0 800052E3 		cmp	r2, #128
 132              		.loc 1 46 0
 133 00c4 013083E2 		add	r3, r3, #1
 134 00c8 003081E5 		str	r3, [r1, #0]
 135              		.loc 1 53 0
 136 00cc 0C20A081 		movhi	r2, ip
 137 00d0 0030A083 		movhi	r3, #0
 138 00d4 0030C285 		strhib	r3, [r2, #0]
 139              		.loc 1 52 0
 140 00d8 01308382 		addhi	r3, r3, #1
 141              		.loc 1 55 0
 142 00dc 0020DCE5 		ldrb	r2, [ip, #0]	@ zero_extendqisi2
 143              		.loc 1 52 0
 144 00e0 00308585 		strhi	r3, [r5, #0]
 145              		.loc 1 55 0
 146 00e4 58309FE5 		ldr	r3, .L21+12
 147 00e8 0200D3E7 		ldrb	r0, [r3, r2]	@ zero_extendqisi2
 148 00ec 0000E0E1 		mvn	r0, r0
 149 00f0 012082E2 		add	r2, r2, #1
 150 00f4 FF0000E2 		and	r0, r0, #255
 151 00f8 0020CCE5 		strb	r2, [ip, #0]
 152 00fc FEFFFFEB 		bl	send_SPI
  56:irq_timer1.c  ****   send_SPI(~columnCounter);
 153              		.loc 1 56 0
 154 0100 004095E5 		ldr	r4, [r5, #0]
 155 0104 0400E0E1 		mvn	r0, r4
 156 0108 FF0000E2 		and	r0, r0, #255
 157 010c FEFFFFEB 		bl	send_SPI
  57:irq_timer1.c  ****   columnCounter <<= 1;
  58:irq_timer1.c  **** 
  59:irq_timer1.c  ****   T1IR        = 0xff;        //reset all IRQ flags
 158              		.loc 1 59 0
 159 0110 30309FE5 		ldr	r3, .L21+16
 160 0114 FF20A0E3 		mov	r2, #255
 161 0118 002083E5 		str	r2, [r3, #0]
 162              		.loc 1 57 0
 163 011c 8440A0E1 		mov	r4, r4, asl #1
  60:irq_timer1.c  ****   VICVectAddr = 0x00;        //dummy write to VIC to signal end of interrupt
 164              		.loc 1 60 0
ARM GAS  /cygdrive/c/Users/embedded/AppData/Local/Temp/ccqGPoOm.s 			page 5


 165 0120 0020A0E3 		mov	r2, #0
 166 0124 0030E0E3 		mvn	r3, #0
 167              		.loc 1 57 0
 168 0128 004085E5 		str	r4, [r5, #0]
 169              		.loc 1 60 0
 170 012c CF2F03E5 		str	r2, [r3, #-4047]
  61:irq_timer1.c  **** }
 171              		.loc 1 61 0
 172 0130 3040BDE8 		ldmfd	sp!, {r4, r5, lr}
 173 0134 1EFF2FE1 		bx	lr
 174              	.L22:
 175              		.align	2
 176              	.L21:
 177 0138 00000000 		.word	Timer
 178 013c 00000000 		.word	columnCounter.1263
 179 0140 04000000 		.word	index.1264
 180 0144 00000000 		.word	pattern
 181 0148 008000E0 		.word	-536838144
 182              	.LFE4:
 183              		.size	ledMatrix, .-ledMatrix
 184              		.global	Timer
 185              		.bss
 186              		.align	2
 187              		.type	Timer, %object
 188              		.size	Timer, 4
 189              	Timer:
 190 0000 00000000 		.space	4
 191              	index.1264:
 192 0004 00       		.space	1
 193 0005 000000   		.data
 194              		.align	2
 195              		.type	columnCounter.1263, %object
 196              		.size	columnCounter.1263, 4
 197              	columnCounter.1263:
 198 0000 01000000 		.word	1
 199              		.section	.debug_frame,"",%progbits
 200              	.Lframe0:
 201 0000 0C000000 		.4byte	.LECIE0-.LSCIE0
 202              	.LSCIE0:
 203 0004 FFFFFFFF 		.4byte	0xffffffff
 204 0008 01       		.byte	0x1
 205 0009 00       		.ascii	"\000"
 206 000a 01       		.uleb128 0x1
 207 000b 7C       		.sleb128 -4
 208 000c 0E       		.byte	0xe
 209 000d 0C       		.byte	0xc
 210 000e 0D       		.uleb128 0xd
 211 000f 00       		.uleb128 0x0
 212              		.align	2
 213              	.LECIE0:
 214              	.LSFDE0:
 215 0010 0C000000 		.4byte	.LEFDE0-.LASFDE0
 216              	.LASFDE0:
 217 0014 00000000 		.4byte	.Lframe0
 218 0018 00000000 		.4byte	.LFB2
 219 001c 94000000 		.4byte	.LFE2-.LFB2
 220              		.align	2
ARM GAS  /cygdrive/c/Users/embedded/AppData/Local/Temp/ccqGPoOm.s 			page 6


 221              	.LEFDE0:
 222              	.LSFDE2:
 223 0020 0C000000 		.4byte	.LEFDE2-.LASFDE2
 224              	.LASFDE2:
 225 0024 00000000 		.4byte	.Lframe0
 226 0028 94000000 		.4byte	.LFB3
 227 002c 14000000 		.4byte	.LFE3-.LFB3
 228              		.align	2
 229              	.LEFDE2:
 230              	.LSFDE4:
 231 0030 18000000 		.4byte	.LEFDE4-.LASFDE4
 232              	.LASFDE4:
 233 0034 00000000 		.4byte	.Lframe0
 234 0038 A8000000 		.4byte	.LFB4
 235 003c A4000000 		.4byte	.LFE4-.LFB4
 236 0040 44       		.byte	0x4
 237              		.4byte	.LCFI0-.LFB4
 238 0041 0E       		.byte	0xe
 239 0042 0C       		.uleb128 0xc
 240 0043 8E       		.byte	0x8e
 241 0044 01       		.uleb128 0x1
 242 0045 85       		.byte	0x85
 243 0046 02       		.uleb128 0x2
 244 0047 84       		.byte	0x84
 245 0048 03       		.uleb128 0x3
 246 0049 000000   		.align	2
 247              	.LEFDE4:
 248              		.file 2 "../pre_emptive_os/api/general.h"
 249              		.text
 250              	.Letext0: